target datalayout = "e-m:e-p270:32:32-p271:32:32-p272:64:64-i64:64-i128:128-f80:128-n8:16:32:64-S128"
target triple = "x86_64-unknown-linux-gnu"

@_ZL20ID_COMPAT_MATH_START = internal constant [13 x i32] [i32 8706, i32 8711, i32 8734, i32 120513, i32 120539, i32 120571, i32 120597, i32 120629, i32 120655, i32 120687, i32 120713, i32 120745, i32 120771], align 16

; Function Attrs: mustprogress nounwind uwtable
define internal noundef signext i8 @_ZL19isIDCompatMathStartRK14BinaryPropertyi9UProperty(ptr noundef nonnull align 8 dereferenceable(16) %0, i32 noundef %c, i32 noundef %1) #2 {
entry:
  %retval = alloca i8, align 1
  %.addr = alloca ptr, align 8
  %c.addr = alloca i32, align 4
  %.addr1 = alloca i32, align 4
  %__range1 = alloca ptr, align 8
  %__begin1 = alloca ptr, align 8
  %__end1 = alloca ptr, align 8
  %startChar = alloca i32, align 4
  store ptr %0, ptr %.addr, align 8
  store i32 %c, ptr %c.addr, align 4
  store i32 %1, ptr %.addr1, align 4
  %2 = load i32, ptr %c.addr, align 4
  %3 = load i32, ptr @_ZL20ID_COMPAT_MATH_START, align 16
  %cmp = icmp slt i32 %2, %3
  br i1 %cmp, label %if.then, label %if.end

if.then:                                          ; preds = %entry
  store i8 0, ptr %retval, align 1
  br label %return

if.end:                                           ; preds = %entry
  store ptr @_ZL20ID_COMPAT_MATH_START, ptr %__range1, align 8
  store ptr @_ZL20ID_COMPAT_MATH_START, ptr %__begin1, align 8
  store ptr getelementptr inbounds (i32, ptr @_ZL20ID_COMPAT_MATH_START, i64 13), ptr %__end1, align 8
  br label %for.cond

for.cond:                                         ; preds = %for.inc, %if.end
  %4 = load ptr, ptr %__begin1, align 8
  %5 = load ptr, ptr %__end1, align 8
  %cmp2 = icmp ne ptr %4, %5
  br i1 %cmp2, label %for.body, label %for.end

for.body:                                         ; preds = %for.cond
  %6 = load ptr, ptr %__begin1, align 8
  %7 = load i32, ptr %6, align 4
  store i32 %7, ptr %startChar, align 4
  %8 = load i32, ptr %c.addr, align 4
  %9 = load i32, ptr %startChar, align 4
  %cmp3 = icmp eq i32 %8, %9
  br i1 %cmp3, label %if.then4, label %if.end5

if.then4:                                         ; preds = %for.body
  store i8 1, ptr %retval, align 1
  br label %return

if.end5:                                          ; preds = %for.body
  br label %for.inc

for.inc:                                          ; preds = %if.end5
  %10 = load ptr, ptr %__begin1, align 8
  %incdec.ptr = getelementptr inbounds i32, ptr %10, i32 1
  store ptr %incdec.ptr, ptr %__begin1, align 8
  br label %for.cond

for.end:                                          ; preds = %for.cond
  store i8 0, ptr %retval, align 1
  br label %return

return:                                           ; preds = %for.end, %if.then4, %if.then
  %11 = load i8, ptr %retval, align 1
  ret i8 %11
}