; Function Attrs: mustprogress nofree norecurse nosync nounwind willreturn memory(none) uwtable
define internal noundef signext i8 @_ZL19isIDCompatMathStartRK14BinaryPropertyi9UProperty(ptr nocapture nonnull readnone align 8 %0, i32 noundef %c, i32 %1) #2 {
entry:
  %cmp = icmp slt i32 %c, 8706
  br i1 %cmp, label %return, label %for.body

for.cond:                                         ; preds = %for.body
  %__begin1.0.add = add nuw nsw i64 %__begin1.0.idx4, 4
  %cmp2.not = icmp eq i64 %__begin1.0.add, 52
  br i1 %cmp2.not, label %return, label %for.body

for.body:                                         ; preds = %entry, %for.cond
  %__begin1.0.idx4 = phi i64 [ %__begin1.0.add, %for.cond ], [ 0, %entry ]
  %__begin1.0.ptr = getelementptr inbounds i8, ptr @_ZL20ID_COMPAT_MATH_START, i64 %__begin1.0.idx4
  %2 = load i32, ptr %__begin1.0.ptr, align 4
  %cmp3 = icmp eq i32 %2, %c
  br i1 %cmp3, label %return, label %for.cond

return:                                           ; preds = %for.cond, %for.body, %entry
  %retval.0 = phi i8 [ 0, %entry ], [ 0, %for.cond ], [ 1, %for.body ]
  ret i8 %retval.0
}